target datalayout = "e-m:e-p270:32:32-p271:32:32-p272:64:64-i64:64-i128:128-f80:128-n8:16:32:64-S128"
target triple = "x86_64-pc-linux-gnu"

%struct.cli_events = type { ptr, %struct.cli_event, i64, i32, i32 }
%struct.cli_event = type { ptr, %union.ev_val, i32, i16 }
%union.ev_val = type { ptr }

; Function Attrs: nounwind uwtable
define i32 @cli_event_errors(ptr noundef %0) #0 {
  %2 = alloca i32, align 4
  %3 = alloca ptr, align 8
  store ptr %0, ptr %3, align 8, !tbaa !7
  %4 = load ptr, ptr %3, align 8, !tbaa !7
  %5 = icmp ne ptr %4, null
  br i1 %5, label %7, label %6

6:                                                ; preds = %1
  store i32 0, ptr %2, align 4
  br label %16

7:                                                ; preds = %1
  %8 = load ptr, ptr %3, align 8, !tbaa !7
  %9 = getelementptr inbounds nuw %struct.cli_events, ptr %8, i32 0, i32 1
  %10 = getelementptr inbounds nuw %struct.cli_event, ptr %9, i32 0, i32 2
  %11 = load i32, ptr %10, align 8, !tbaa !35
  %12 = load ptr, ptr %3, align 8, !tbaa !7
  %13 = getelementptr inbounds nuw %struct.cli_events, ptr %12, i32 0, i32 4
  %14 = load i32, ptr %13, align 4, !tbaa !19
  %15 = add i32 %11, %14
  store i32 %15, ptr %2, align 4
  br label %16

16:                                               ; preds = %7, %6
  %17 = load i32, ptr %2, align 4
  ret i32 %17
}